; Function Attrs: mustprogress uwtable
define hidden void @_ZN3ue218getFdrDescriptionsEPSt6vectorINS_20FDREngineDescriptionESaIS1_EE(ptr noundef %0) local_unnamed_addr #0 personality ptr @__gxx_personality_v0 {
  %2 = load ptr, ptr %0, align 8
  %3 = getelementptr inbounds nuw i8, ptr %0, i64 8
  %4 = load ptr, ptr %3, align 8
  %.not.i.i = icmp eq ptr %4, %2
  br i1 %.not.i.i, label %_ZNSt6vectorIN3ue220FDREngineDescriptionESaIS1_EE5clearEv.exit, label %.lr.ph.i.i.i.i.i

.lr.ph.i.i.i.i.i:                                 ; preds = %1, %.lr.ph.i.i.i.i.i
  %.05.i.i.i.i.i = phi ptr [ %7, %.lr.ph.i.i.i.i.i ], [ %2, %1 ]
  %5 = load ptr, ptr %.05.i.i.i.i.i, align 8
  %6 = load ptr, ptr %5, align 8
  tail call void %6(ptr noundef nonnull align 8 dereferenceable(48) %.05.i.i.i.i.i) #16
  %7 = getelementptr inbounds nuw i8, ptr %.05.i.i.i.i.i, i64 48
  %.not.i.i.i.i.i = icmp eq ptr %7, %4
  br i1 %.not.i.i.i.i.i, label %_ZSt8_DestroyIPN3ue220FDREngineDescriptionES1_EvT_S3_RSaIT0_E.exit.i.i, label %.lr.ph.i.i.i.i.i, !llvm.loop !5

_ZSt8_DestroyIPN3ue220FDREngineDescriptionES1_EvT_S3_RSaIT0_E.exit.i.i: ; preds = %.lr.ph.i.i.i.i.i
  store ptr %2, ptr %3, align 8
  br label %_ZNSt6vectorIN3ue220FDREngineDescriptionESaIS1_EE5clearEv.exit

_ZNSt6vectorIN3ue220FDREngineDescriptionESaIS1_EE5clearEv.exit: ; preds = %1, %_ZSt8_DestroyIPN3ue220FDREngineDescriptionES1_EvT_S3_RSaIT0_E.exit.i.i
  %8 = phi ptr [ %4, %1 ], [ %2, %_ZSt8_DestroyIPN3ue220FDREngineDescriptionES1_EvT_S3_RSaIT0_E.exit.i.i ]
  %9 = getelementptr inbounds nuw i8, ptr %0, i64 16
  %10 = load ptr, ptr %9, align 8
  %.not.i = icmp eq ptr %8, %10
  br i1 %.not.i, label %23, label %11

11:                                               ; preds = %_ZNSt6vectorIN3ue220FDREngineDescriptionESaIS1_EE5clearEv.exit
  %12 = tail call { i32, i64 } @_ZN3ue220targetByArchFeaturesEy(i64 noundef 0)
  %13 = extractvalue { i32, i64 } %12, 0
  %14 = extractvalue { i32, i64 } %12, 1
  %15 = getelementptr inbounds nuw i8, ptr %8, i64 8
  store i32 0, ptr %15, align 8
  %16 = getelementptr inbounds nuw i8, ptr %8, i64 16
  store i32 %13, ptr %16, align 8
  %.sroa.45.0..sroa_idx.i.i.i.i = getelementptr inbounds nuw i8, ptr %8, i64 24
  store i64 %14, ptr %.sroa.45.0..sroa_idx.i.i.i.i, align 8
  %17 = getelementptr inbounds nuw i8, ptr %8, i64 32
  store i32 8, ptr %17, align 8
  store ptr getelementptr inbounds nuw inrange(-16, 24) (i8, ptr @_ZTVN3ue220FDREngineDescriptionE, i64 16), ptr %8, align 8
  %18 = getelementptr inbounds nuw i8, ptr %8, i64 36
  store i32 64, ptr %18, align 4
  %19 = getelementptr inbounds nuw i8, ptr %8, i64 40
  store i32 0, ptr %19, align 8
  %20 = getelementptr inbounds nuw i8, ptr %8, i64 44
  store i32 0, ptr %20, align 4
  %21 = load ptr, ptr %3, align 8
  %22 = getelementptr inbounds nuw i8, ptr %21, i64 48
  store ptr %22, ptr %3, align 8
  br label %_ZNSt6vectorIN3ue220FDREngineDescriptionESaIS1_EE12emplace_backIJRKNS0_12FDREngineDefEEEEvDpOT_.exit

23:                                               ; preds = %_ZNSt6vectorIN3ue220FDREngineDescriptionESaIS1_EE5clearEv.exit
  tail call void @_ZNSt6vectorIN3ue220FDREngineDescriptionESaIS1_EE17_M_realloc_insertIJRKNS0_12FDREngineDefEEEEvN9__gnu_cxx17__normal_iteratorIPS1_S3_EEDpOT_(ptr noundef nonnull align 8 dereferenceable(24) %0, ptr %8, ptr noundef nonnull align 8 dereferenceable(24) @_ZZN3ue218getFdrDescriptionsEPSt6vectorINS_20FDREngineDescriptionESaIS1_EEE3def)
  br label %_ZNSt6vectorIN3ue220FDREngineDescriptionESaIS1_EE12emplace_backIJRKNS0_12FDREngineDefEEEEvDpOT_.exit

_ZNSt6vectorIN3ue220FDREngineDescriptionESaIS1_EE12emplace_backIJRKNS0_12FDREngineDefEEEEvDpOT_.exit: ; preds = %11, %23
  ret void
}